target datalayout = "e-m:e-p270:32:32-p271:32:32-p272:64:64-i64:64-i128:128-f80:128-n8:16:32:64-S128"
target triple = "x86_64-pc-linux-gnu"

%struct.QMetaObject = type { %struct.anon }
%struct.anon = type { %"struct.QMetaObject::SuperData", ptr, ptr, ptr, ptr, ptr }
%"struct.QMetaObject::SuperData" = type { ptr }
%class.PickedPointTreeWidgetItem = type <{ %class.QTreeWidgetItem.base, %"class.vcg::Point3", %"class.vcg::Point3", i8, [3 x i8] }>
%class.QTreeWidgetItem.base = type <{ ptr, i32, [4 x i8], %class.QVector, ptr, ptr, ptr, %class.QList, %class.QFlags }>
%class.QVector = type { ptr }
%class.QList = type { %union.anon }
%union.anon = type { %struct.QListData }
%struct.QListData = type { ptr }
%class.QFlags = type { i32 }
%"class.vcg::Point3" = type { [3 x float] }
%class.QTreeWidgetItem = type <{ ptr, i32, [4 x i8], %class.QVector, ptr, ptr, ptr, %class.QList, %class.QFlags, [4 x i8] }>

@_ZN9QCheckBox16staticMetaObjectE = external global %struct.QMetaObject, align 8

; Function Attrs: mustprogress uwtable
define linkonce_odr noundef ptr @_Z12qobject_castIP9QCheckBoxET_P7QObject(ptr noundef %0) #5 comdat {
  %2 = alloca ptr, align 8
  store ptr %0, ptr %2, align 8
  %3 = load ptr, ptr %2, align 8
  %4 = call noundef ptr @_ZNK11QMetaObject4castEP7QObject(ptr noundef nonnull align 8 dereferenceable(48) @_ZN9QCheckBox16staticMetaObjectE, ptr noundef %3)
  ret ptr %4
}

; Function Attrs: mustprogress nounwind uwtable
define linkonce_odr noundef ptr @_ZNK15QTreeWidgetItem10treeWidgetEv(ptr noundef nonnull align 8 dereferenceable(60) %0) #4 comdat align 2 {
  %2 = alloca ptr, align 8
  store ptr %0, ptr %2, align 8
  %3 = load ptr, ptr %2, align 8
  %4 = getelementptr inbounds %class.QTreeWidgetItem, ptr %3, i32 0, i32 4
  %5 = load ptr, ptr %4, align 8
  ret ptr %5
}

; Function Attrs: mustprogress uwtable
define void @_ZN25PickedPointTreeWidgetItem9setActiveEb(ptr noundef nonnull align 8 dereferenceable(85) %0, i1 noundef zeroext %1) #5 align 2 {
  %3 = alloca ptr, align 8
  %4 = alloca i8, align 1
  %5 = alloca ptr, align 8
  %6 = alloca ptr, align 8
  %7 = alloca ptr, align 8
  store ptr %0, ptr %3, align 8
  %8 = zext i1 %1 to i8
  store i8 %8, ptr %4, align 1
  %9 = load ptr, ptr %3, align 8
  %10 = load i8, ptr %4, align 1
  %11 = trunc i8 %10 to i1
  %12 = getelementptr inbounds %class.PickedPointTreeWidgetItem, ptr %9, i32 0, i32 3
  %13 = zext i1 %11 to i8
  store i8 %13, ptr %12, align 4
  %14 = call noundef ptr @_ZNK15QTreeWidgetItem10treeWidgetEv(ptr noundef nonnull align 8 dereferenceable(60) %9)
  store ptr %14, ptr %5, align 8
  %15 = load ptr, ptr %5, align 8
  %16 = call noundef ptr @_ZNK11QTreeWidget10itemWidgetEP15QTreeWidgetItemi(ptr noundef nonnull align 8 dereferenceable(48) %15, ptr noundef %9, i32 noundef 4)
  store ptr %16, ptr %6, align 8
  %17 = load ptr, ptr %6, align 8
  %18 = call noundef ptr @_Z12qobject_castIP9QCheckBoxET_P7QObject(ptr noundef %17)
  store ptr %18, ptr %7, align 8
  %19 = load ptr, ptr %7, align 8
  %20 = load i8, ptr %4, align 1
  %21 = trunc i8 %20 to i1
  call void @_ZN15QAbstractButton10setCheckedEb(ptr noundef nonnull align 8 dereferenceable(48) %19, i1 noundef zeroext %21)
  ret void
}