; Function Attrs: mustprogress uwtable
define void @_ZN25PickedPointTreeWidgetItem9setActiveEb(ptr noundef nonnull align 8 dereferenceable(85) %0, i1 noundef zeroext %1) local_unnamed_addr #9 align 2 {
  %3 = zext i1 %1 to i8
  %4 = getelementptr inbounds i8, ptr %0, i64 84
  store i8 %3, ptr %4, align 4
  %5 = getelementptr inbounds i8, ptr %0, i64 24
  %6 = load ptr, ptr %5, align 8
  %7 = tail call noundef ptr @_ZNK11QTreeWidget10itemWidgetEP15QTreeWidgetItemi(ptr noundef nonnull align 8 dereferenceable(48) %6, ptr noundef nonnull %0, i32 noundef 4)
  %8 = tail call noundef ptr @_ZNK11QMetaObject4castEP7QObject(ptr noundef nonnull align 8 dereferenceable(48) @_ZN9QCheckBox16staticMetaObjectE, ptr noundef %7)
  tail call void @_ZN15QAbstractButton10setCheckedEb(ptr noundef nonnull align 8 dereferenceable(48) %8, i1 noundef zeroext %1)
  ret void
}